target datalayout = "e-m:e-p270:32:32-p271:32:32-p272:64:64-i64:64-i128:128-f80:128-n8:16:32:64-S128"
target triple = "x86_64-pc-linux-gnu"

%struct.SurfaceDataRasInfo = type { %struct.SurfaceDataBounds, ptr, i32, i32, i32, i32, ptr, ptr, ptr, ptr, ptr, ptr, i32, %union.anon.0 }
%struct.SurfaceDataBounds = type { i32, i32, i32, i32 }
%union.anon.0 = type { ptr, [56 x i8] }

; Function Attrs: nounwind uwtable
define hidden void @ByteIndexedBmToThreeByteBgrXparOver(ptr noundef %0, ptr noundef %1, i32 noundef %2, i32 noundef %3, ptr noundef %4, ptr noundef %5, ptr noundef %6, ptr noundef %7) #1 {
  %9 = alloca ptr, align 8
  %10 = alloca ptr, align 8
  %11 = alloca i32, align 4
  %12 = alloca i32, align 4
  %13 = alloca ptr, align 8
  %14 = alloca ptr, align 8
  %15 = alloca ptr, align 8
  %16 = alloca ptr, align 8
  %17 = alloca ptr, align 8
  %18 = alloca ptr, align 8
  %19 = alloca ptr, align 8
  %20 = alloca i32, align 4
  %21 = alloca i32, align 4
  %22 = alloca i32, align 4
  %23 = alloca i32, align 4
  store ptr %0, ptr %9, align 8
  store ptr %1, ptr %10, align 8
  store i32 %2, ptr %11, align 4
  store i32 %3, ptr %12, align 4
  store ptr %4, ptr %13, align 8
  store ptr %5, ptr %14, align 8
  store ptr %6, ptr %15, align 8
  store ptr %7, ptr %16, align 8
  %24 = load ptr, ptr %13, align 8
  %25 = getelementptr inbounds %struct.SurfaceDataRasInfo, ptr %24, i32 0, i32 6
  %26 = load ptr, ptr %25, align 8
  store ptr %26, ptr %17, align 8
  br label %27

27:                                               ; preds = %8
  %28 = load ptr, ptr %9, align 8
  store ptr %28, ptr %18, align 8
  %29 = load ptr, ptr %10, align 8
  store ptr %29, ptr %19, align 8
  %30 = load ptr, ptr %13, align 8
  %31 = getelementptr inbounds %struct.SurfaceDataRasInfo, ptr %30, i32 0, i32 4
  %32 = load i32, ptr %31, align 8
  store i32 %32, ptr %20, align 4
  %33 = load ptr, ptr %14, align 8
  %34 = getelementptr inbounds %struct.SurfaceDataRasInfo, ptr %33, i32 0, i32 4
  %35 = load i32, ptr %34, align 8
  store i32 %35, ptr %21, align 4
  %36 = load i32, ptr %11, align 4
  %37 = mul i32 %36, 1
  %38 = load i32, ptr %20, align 4
  %39 = sub i32 %38, %37
  store i32 %39, ptr %20, align 4
  %40 = load i32, ptr %11, align 4
  %41 = mul i32 %40, 3
  %42 = load i32, ptr %21, align 4
  %43 = sub i32 %42, %41
  store i32 %43, ptr %21, align 4
  br label %44

44:                                               ; preds = %102, %27
  %45 = load i32, ptr %11, align 4
  store i32 %45, ptr %22, align 4
  br label %46

46:                                               ; preds = %85, %44
  br label %47

47:                                               ; preds = %46
  %48 = load ptr, ptr %17, align 8
  %49 = load ptr, ptr %18, align 8
  %50 = getelementptr inbounds i8, ptr %49, i64 0
  %51 = load i8, ptr %50, align 1
  %52 = zext i8 %51 to i64
  %53 = getelementptr inbounds i32, ptr %48, i64 %52
  %54 = load i32, ptr %53, align 4
  store i32 %54, ptr %23, align 4
  %55 = load i32, ptr %23, align 4
  %56 = icmp slt i32 %55, 0
  br i1 %56, label %57, label %75

57:                                               ; preds = %47
  br label %58

58:                                               ; preds = %57
  %59 = load i32, ptr %23, align 4
  %60 = ashr i32 %59, 0
  %61 = trunc i32 %60 to i8
  %62 = load ptr, ptr %19, align 8
  %63 = getelementptr inbounds i8, ptr %62, i64 0
  store i8 %61, ptr %63, align 1
  %64 = load i32, ptr %23, align 4
  %65 = ashr i32 %64, 8
  %66 = trunc i32 %65 to i8
  %67 = load ptr, ptr %19, align 8
  %68 = getelementptr inbounds i8, ptr %67, i64 1
  store i8 %66, ptr %68, align 1
  %69 = load i32, ptr %23, align 4
  %70 = ashr i32 %69, 16
  %71 = trunc i32 %70 to i8
  %72 = load ptr, ptr %19, align 8
  %73 = getelementptr inbounds i8, ptr %72, i64 2
  store i8 %71, ptr %73, align 1
  br label %74

74:                                               ; preds = %58
  br label %75

75:                                               ; preds = %74, %47
  br label %76

76:                                               ; preds = %75
  %77 = load ptr, ptr %18, align 8
  %78 = ptrtoint ptr %77 to i64
  %79 = add nsw i64 %78, 1
  %80 = inttoptr i64 %79 to ptr
  store ptr %80, ptr %18, align 8
  %81 = load ptr, ptr %19, align 8
  %82 = ptrtoint ptr %81 to i64
  %83 = add nsw i64 %82, 3
  %84 = inttoptr i64 %83 to ptr
  store ptr %84, ptr %19, align 8
  br label %85

85:                                               ; preds = %76
  %86 = load i32, ptr %22, align 4
  %87 = add i32 %86, -1
  store i32 %87, ptr %22, align 4
  %88 = icmp ugt i32 %87, 0
  br i1 %88, label %46, label %89, !llvm.loop !23

89:                                               ; preds = %85
  %90 = load ptr, ptr %18, align 8
  %91 = ptrtoint ptr %90 to i64
  %92 = load i32, ptr %20, align 4
  %93 = sext i32 %92 to i64
  %94 = add nsw i64 %91, %93
  %95 = inttoptr i64 %94 to ptr
  store ptr %95, ptr %18, align 8
  %96 = load ptr, ptr %19, align 8
  %97 = ptrtoint ptr %96 to i64
  %98 = load i32, ptr %21, align 4
  %99 = sext i32 %98 to i64
  %100 = add nsw i64 %97, %99
  %101 = inttoptr i64 %100 to ptr
  store ptr %101, ptr %19, align 8
  br label %102

102:                                              ; preds = %89
  %103 = load i32, ptr %12, align 4
  %104 = add i32 %103, -1
  store i32 %104, ptr %12, align 4
  %105 = icmp ugt i32 %104, 0
  br i1 %105, label %44, label %106, !llvm.loop !24

106:                                              ; preds = %102
  br label %107

107:                                              ; preds = %106
  ret void
}