; Function Attrs: nofree norecurse nosync nounwind memory(readwrite, inaccessiblemem: none) uwtable
define hidden void @ByteIndexedBmToThreeByteBgrXparOver(ptr noundef %0, ptr noundef %1, i32 noundef %2, i32 noundef %3, ptr nocapture noundef readonly %4, ptr nocapture noundef readonly %5, ptr nocapture readnone %6, ptr nocapture readnone %7) #1 {
  %9 = getelementptr inbounds i8, ptr %4, i64 40
  %10 = load ptr, ptr %9, align 8
  %11 = getelementptr inbounds i8, ptr %4, i64 32
  %12 = load i32, ptr %11, align 8
  %13 = getelementptr inbounds i8, ptr %5, i64 32
  %14 = load i32, ptr %13, align 8
  %15 = sub i32 %12, %2
  %.neg = mul i32 %2, -3
  %16 = add i32 %14, %.neg
  %17 = sext i32 %15 to i64
  %18 = sext i32 %16 to i64
  br label %19

19:                                               ; preds = %42, %8
  %.028 = phi ptr [ %0, %8 ], [ %44, %42 ]
  %.027 = phi ptr [ %1, %8 ], [ %46, %42 ]
  %.0 = phi i32 [ %3, %8 ], [ %47, %42 ]
  br label %20

20:                                               ; preds = %34, %19
  %.129 = phi ptr [ %.028, %19 ], [ %37, %34 ]
  %.1 = phi ptr [ %.027, %19 ], [ %40, %34 ]
  %.026 = phi i32 [ %2, %19 ], [ %41, %34 ]
  %21 = load i8, ptr %.129, align 1
  %22 = zext i8 %21 to i64
  %23 = getelementptr inbounds i32, ptr %10, i64 %22
  %24 = load i32, ptr %23, align 4
  %25 = icmp slt i32 %24, 0
  br i1 %25, label %26, label %34

26:                                               ; preds = %20
  %27 = trunc i32 %24 to i8
  store i8 %27, ptr %.1, align 1
  %28 = lshr i32 %24, 8
  %29 = trunc i32 %28 to i8
  %30 = getelementptr inbounds i8, ptr %.1, i64 1
  store i8 %29, ptr %30, align 1
  %31 = lshr i32 %24, 16
  %32 = trunc i32 %31 to i8
  %33 = getelementptr inbounds i8, ptr %.1, i64 2
  store i8 %32, ptr %33, align 1
  br label %34

34:                                               ; preds = %20, %26
  %35 = ptrtoint ptr %.129 to i64
  %36 = add nsw i64 %35, 1
  %37 = inttoptr i64 %36 to ptr
  %38 = ptrtoint ptr %.1 to i64
  %39 = add nsw i64 %38, 3
  %40 = inttoptr i64 %39 to ptr
  %41 = add i32 %.026, -1
  %.not = icmp eq i32 %41, 0
  br i1 %.not, label %42, label %20, !llvm.loop !23

42:                                               ; preds = %34
  %43 = add nsw i64 %36, %17
  %44 = inttoptr i64 %43 to ptr
  %45 = add nsw i64 %39, %18
  %46 = inttoptr i64 %45 to ptr
  %47 = add i32 %.0, -1
  %.not33 = icmp eq i32 %47, 0
  br i1 %.not33, label %48, label %19, !llvm.loop !24

48:                                               ; preds = %42
  ret void
}